target datalayout = "e-m:e-p270:32:32-p271:32:32-p272:64:64-i64:64-i128:128-f80:128-n8:16:32:64-S128"
target triple = "x86_64-pc-linux-gnu"

%struct.timeval = type { i64, i64 }
%struct.settings = type { i64, i32, i32, i32, ptr, i32, i32, i32, ptr, ptr, i32, double, i32, i32, i32, i8, i32, i32, i8, i32, i32, i32, i32, i32, i32, i8, i8, i8, i8, i8, i8, i8, i32, i32, double, double, i32, i32, i8, i32, i8, i8, ptr, i32, i32, i32, i32, double, double, i32, i8, i32, i32, i32, i32, i32, i8, i8, i8, ptr, i32, i32, i32, i32, i32, i32, i32, i32, i32, i32, double, i8, i32, i32, ptr, i32 }
%struct.event = type { %struct.event_callback, %union.anon.1, i32, ptr, %union.anon.3, i16, i16, %struct.timeval }
%struct.event_callback = type { %struct.anon.0, i16, i8, i8, %union.anon, ptr }
%struct.anon.0 = type { ptr, ptr }
%union.anon = type { ptr }
%union.anon.1 = type { %struct.anon.2 }
%struct.anon.2 = type { ptr, ptr }
%union.anon.3 = type { %struct.anon.4 }
%struct.anon.4 = type { %struct.anon.5, %struct.timeval }
%struct.anon.5 = type { ptr, ptr }
%struct.conn = type { ptr, i32, i8, i8, i8, i8, i8, i8, i8, i8, ptr, i32, i32, i32, %struct.event, i16, i16, ptr, ptr, i32, i32, ptr, ptr, ptr, i32, ptr, i32, i32, i32, i32, i32, i32, i32, %struct.sockaddr_in6, i32, i8, %struct.anon.9, %union.protocol_binary_request_header, i64, i64, i16, i32, i32, ptr, ptr, ptr, ptr, ptr, ptr }
%struct.sockaddr_in6 = type { i16, i16, i32, %struct.in6_addr, i32 }
%struct.in6_addr = type { %union.anon.8 }
%union.anon.8 = type { [4 x i32] }
%struct.anon.9 = type { ptr, i64, i64 }
%union.protocol_binary_request_header = type { %struct.anon.10 }
%struct.anon.10 = type { i8, i8, i16, i8, i8, i16, i32, i32, i64 }

@settings = dso_local global %struct.settings zeroinitializer, align 8
@stderr = external global ptr, align 8
@.str.13 = private unnamed_addr constant [7 x i8] c"binary\00", align 1
@.str.14 = private unnamed_addr constant [6 x i8] c"ascii\00", align 1
@.str.364 = private unnamed_addr constant [8 x i8] c"unknown\00", align 1
@.str.365 = private unnamed_addr constant [15 x i8] c"auto-negotiate\00", align 1
@.str.397 = private unnamed_addr constant [34 x i8] c"%d: Client using the %s protocol\0A\00", align 1

; Function Attrs: nounwind uwtable
define internal ptr @prot_text(i32 noundef %0) #0 {
  %2 = alloca i32, align 4
  %3 = alloca ptr, align 8
  store i32 %0, ptr %2, align 4, !tbaa !8
  call void @llvm.lifetime.start.p0(i64 8, ptr %3) #15
  store ptr @.str.364, ptr %3, align 8, !tbaa !29
  %4 = load i32, ptr %2, align 4, !tbaa !8
  switch i32 %4, label %8 [
    i32 3, label %5
    i32 4, label %6
    i32 5, label %7
  ]

5:                                                ; preds = %1
  store ptr @.str.14, ptr %3, align 8, !tbaa !29
  br label %8

6:                                                ; preds = %1
  store ptr @.str.13, ptr %3, align 8, !tbaa !29
  br label %8

7:                                                ; preds = %1
  store ptr @.str.365, ptr %3, align 8, !tbaa !29
  br label %8

8:                                                ; preds = %1, %7, %6, %5
  %9 = load ptr, ptr %3, align 8, !tbaa !29
  call void @llvm.lifetime.end.p0(i64 8, ptr %3) #15
  ret ptr %9
}

; Function Attrs: nounwind uwtable
define internal i32 @try_read_command_negotiate(ptr noundef %0) #0 {
  %2 = alloca ptr, align 8
  store ptr %0, ptr %2, align 8, !tbaa !10
  %3 = load ptr, ptr %2, align 8, !tbaa !10
  %4 = getelementptr inbounds nuw %struct.conn, ptr %3, i32 0, i32 17
  %5 = load ptr, ptr %4, align 8, !tbaa !43
  %6 = getelementptr inbounds i8, ptr %5, i64 0
  %7 = load i8, ptr %6, align 1, !tbaa !61
  %8 = zext i8 %7 to i32
  %9 = icmp eq i32 %8, 128
  br i1 %9, label %10, label %15

10:                                               ; preds = %1
  %11 = load ptr, ptr %2, align 8, !tbaa !10
  %12 = getelementptr inbounds nuw %struct.conn, ptr %11, i32 0, i32 29
  store i32 4, ptr %12, align 4, !tbaa !71
  %13 = load ptr, ptr %2, align 8, !tbaa !10
  %14 = getelementptr inbounds nuw %struct.conn, ptr %13, i32 0, i32 45
  store ptr @try_read_command_binary, ptr %14, align 8, !tbaa !73
  br label %20

15:                                               ; preds = %1
  %16 = load ptr, ptr %2, align 8, !tbaa !10
  %17 = getelementptr inbounds nuw %struct.conn, ptr %16, i32 0, i32 29
  store i32 3, ptr %17, align 4, !tbaa !71
  %18 = load ptr, ptr %2, align 8, !tbaa !10
  %19 = getelementptr inbounds nuw %struct.conn, ptr %18, i32 0, i32 45
  store ptr @try_read_command_ascii, ptr %19, align 8, !tbaa !73
  br label %20

20:                                               ; preds = %15, %10
  %21 = load i32, ptr getelementptr inbounds nuw (%struct.settings, ptr @settings, i32 0, i32 5), align 8, !tbaa !51
  %22 = icmp sgt i32 %21, 1
  br i1 %22, label %23, label %33

23:                                               ; preds = %20
  %24 = load ptr, ptr @stderr, align 8, !tbaa !52
  %25 = load ptr, ptr %2, align 8, !tbaa !10
  %26 = getelementptr inbounds nuw %struct.conn, ptr %25, i32 0, i32 1
  %27 = load i32, ptr %26, align 8, !tbaa !54
  %28 = load ptr, ptr %2, align 8, !tbaa !10
  %29 = getelementptr inbounds nuw %struct.conn, ptr %28, i32 0, i32 29
  %30 = load i32, ptr %29, align 4, !tbaa !71
  %31 = call ptr @prot_text(i32 noundef %30)
  %32 = call i32 (ptr, ptr, ...) @fprintf(ptr noundef %24, ptr noundef @.str.397, i32 noundef %27, ptr noundef %31) #15
  br label %33

33:                                               ; preds = %23, %20
  %34 = load ptr, ptr %2, align 8, !tbaa !10
  %35 = getelementptr inbounds nuw %struct.conn, ptr %34, i32 0, i32 45
  %36 = load ptr, ptr %35, align 8, !tbaa !73
  %37 = load ptr, ptr %2, align 8, !tbaa !10
  %38 = call i32 %36(ptr noundef %37)
  ret i32 %38
}