; Function Attrs: nounwind uwtable
define internal i32 @try_read_command_negotiate(ptr noundef initializes((260, 264), (408, 416)) %0) #1 {
  %2 = getelementptr inbounds nuw i8, ptr %0, i64 184
  %3 = load ptr, ptr %2, align 8, !tbaa !41
  %4 = load i8, ptr %3, align 1, !tbaa !76
  %5 = icmp eq i8 %4, -128
  %spec.select = select i1 %5, i32 4, i32 3
  %spec.select9 = select i1 %5, ptr @try_read_command_binary, ptr @try_read_command_ascii
  %6 = getelementptr inbounds nuw i8, ptr %0, i64 260
  store i32 %spec.select, ptr %6, align 4, !tbaa !67
  %7 = getelementptr inbounds nuw i8, ptr %0, i64 408
  store ptr %spec.select9, ptr %7, align 8, !tbaa !79
  %8 = load i32, ptr getelementptr inbounds nuw (i8, ptr @settings, i64 32), align 8, !tbaa !49
  %9 = icmp sgt i32 %8, 1
  br i1 %9, label %prot_text.exit, label %14

prot_text.exit:                                   ; preds = %1
  %10 = load ptr, ptr @stderr, align 8, !tbaa !50
  %11 = getelementptr inbounds nuw i8, ptr %0, i64 8
  %12 = load i32, ptr %11, align 8, !tbaa !52
  %spec.select10 = select i1 %5, ptr @.str.13, ptr @.str.14
  %13 = tail call i32 (ptr, ptr, ...) @fprintf(ptr noundef %10, ptr noundef nonnull @.str.397, i32 noundef %12, ptr noundef nonnull %spec.select10) #36
  %.pre = load ptr, ptr %7, align 8, !tbaa !79
  br label %14

14:                                               ; preds = %prot_text.exit, %1
  %15 = phi ptr [ %.pre, %prot_text.exit ], [ %spec.select9, %1 ]
  %16 = tail call i32 %15(ptr noundef nonnull %0) #34
  ret i32 %16
}